Certificate:
    Data:
        Version: 3 (0x2)
        Serial Number: 1 (0x1)
    Signature Algorithm: sha256WithRSAEncryption
        Issuer: C=AF, ST=WAKANDA, L=De-Nile, O=Intermediate DEEZ NUTS Inc, CN=DEEZ NUTS intermediate
        Validity
            Not Before: Nov 22 18:15:27 2018 GMT
            Not After : Aug 18 18:15:27 2021 GMT
        Subject: C=DZ, ST=PUGOPOLOUS, L=PUG CITY, O=ilovepugs.ltd, CN=pugass.com
        Subject Public Key Info:
            Public Key Algorithm: rsaEncryption
                Public-Key: (2048 bit)
                Modulus:
                    00:b4:66:24:7c:20:1f:80:7e:af:33:dc:77:57:96:
                    d7:eb:d8:9b:71:47:f6:80:c2:4c:4c:ce:1b:7f:1f:
                    e7:4c:fc:1a:76:cc:26:b9:d1:20:d2:a6:d5:26:46:
                    21:b9:a9:f5:97:4c:4e:92:ec:eb:c4:1d:8e:11:1e:
                    58:b1:17:2e:ea:5e:26:84:eb:87:32:15:44:2d:97:
                    c2:40:af:d6:2b:13:4d:03:ee:d7:7c:25:61:6c:e9:
                    18:fa:69:cd:7d:ad:52:ae:c3:84:a3:18:cb:48:f6:
                    88:10:18:4f:ac:08:c1:90:35:10:14:e9:4c:11:28:
                    65:58:30:44:18:de:09:d0:b6:5c:0d:26:a6:86:b6:
                    1a:98:95:7b:e1:14:f2:06:aa:45:9d:15:e9:5e:93:
                    36:ca:bc:0a:b1:94:dd:b3:0e:0b:d1:60:14:6a:d4:
                    43:0c:93:24:6a:bb:c7:69:78:84:36:f6:af:db:4c:
                    79:56:b4:65:52:b9:b1:a1:40:7e:06:40:f5:81:91:
                    f7:9b:37:12:cd:bb:f4:e7:8a:f2:3e:e9:2c:31:36:
                    cb:64:69:50:04:94:3e:25:67:84:31:27:6b:7b:e7:
                    79:bf:9b:dc:6b:eb:26:2d:d7:e1:fc:47:28:6a:e9:
                    36:2b:03:1f:f8:2e:b5:2f:d4:f2:1c:7c:03:10:92:
                    b5:41
                Exponent: 65537 (0x10001)
        X509v3 extensions:
            X509v3 Subject Key Identifier: 
                CD:79:A8:BF:B1:FE:16:EF:99:1B:A9:82:06:48:6A:65:6D:7D:02:35
            X509v3 Authority Key Identifier: 
                keyid:4B:D6:E9:97:34:3F:D1:E9:18:1A:9C:D7:DC:1D:93:8C:A8:2F:1A:2C

            X509v3 Basic Constraints: 
                CA:FALSE
            X509v3 Key Usage: 
                Digital Signature, Key Encipherment
            X509v3 Subject Alternative Name: 
                DNS:pugass.com, DNS:www.example.com, DNS:mail.example.com, DNS:ftp.example.com, IP Address:127.0.0.1, IP Address:0:0:0:0:0:0:0:1
            Netscape Comment: 
                OpenSSL Generated Certificate
    Signature Algorithm: sha256WithRSAEncryption
         80:7e:9e:9f:c9:15:cd:5a:1d:92:15:b7:3b:65:6c:5d:d5:e5:
         de:ce:49:cf:e9:46:54:41:0d:c0:44:67:15:a6:21:2f:95:ed:
         ca:e7:74:a1:58:ae:b8:80:2c:f6:0f:75:6f:dd:7d:c3:bd:7a:
         7c:7c:38:9c:a0:b1:67:af:81:ac:af:a2:be:c5:1b:9f:e9:4f:
         d4:29:f0:3b:53:db:51:d8:ef:39:31:32:a8:ee:d2:89:52:54:
         ac:dc:bf:98:7a:9a:a4:f9:60:63:39:65:8e:ca:52:19:76:1d:
         29:13:5b:cf:45:40:ff:ee:d4:e5:bb:d4:a7:fa:28:c0:74:14:
         65:7b:07:d4:21:64:b2:59:32:26:8c:c9:62:59:32:2a:96:6c:
         54:a5:66:a9:86:ef:aa:5b:90:5e:34:56:97:8a:42:19:e7:f5:
         0d:d8:b4:a4:6b:0e:bf:96:3b:0a:62:a9:94:4a:6f:43:0a:39:
         5f:f6:d3:13:8e:0e:1c:b3:56:c7:03:bf:95:e1:cc:e5:d9:22:
         48:6a:2c:9a:91:4c:6e:58:87:a5:ee:a3:13:a8:06:1e:57:8f:
         0b:c6:bf:e7:38:3e:40:ef:19:07:b0:3e:8b:e8:87:7d:a7:4a:
         1d:9e:2e:26:85:54:79:89:e4:17:e9:4f:13:06:4e:58:46:74:
         61:6b:36:b9
-----BEGIN CERTIFICATE-----
MIIEQTCCAymgAwIBAgIBATANBgkqhkiG9w0BAQsFADB3MQswCQYDVQQGEwJBRjEQ
MA4GA1UECAwHV0FLQU5EQTEQMA4GA1UEBwwHRGUtTmlsZTEjMCEGA1UECgwaSW50
ZXJtZWRpYXRlIERFRVogTlVUUyBJbmMxHzAdBgNVBAMMFkRFRVogTlVUUyBpbnRl
cm1lZGlhdGUwHhcNMTgxMTIyMTgxNTI3WhcNMjEwODE4MTgxNTI3WjBiMQswCQYD
VQQGEwJEWjETMBEGA1UECAwKUFVHT1BPTE9VUzERMA8GA1UEBwwIUFVHIENJVFkx
FjAUBgNVBAoMDWlsb3ZlcHVncy5sdGQxEzARBgNVBAMMCnB1Z2Fzcy5jb20wggEi
MA0GCSqGSIb3DQEBAQUAA4IBDwAwggEKAoIBAQC0ZiR8IB+Afq8z3HdXltfr2Jtx
R/aAwkxMzht/H+dM/Bp2zCa50SDSptUmRiG5qfWXTE6S7OvEHY4RHlixFy7qXiaE
64cyFUQtl8JAr9YrE00D7td8JWFs6Rj6ac19rVKuw4SjGMtI9ogQGE+sCMGQNRAU
6UwRKGVYMEQY3gnQtlwNJqaGthqYlXvhFPIGqkWdFelekzbKvAqxlN2zDgvRYBRq
1EMMkyRqu8dpeIQ29q/bTHlWtGVSubGhQH4GQPWBkfebNxLNu/TnivI+6SwxNstk
aVAElD4lZ4QxJ2t753m/m9xr6yYt1+H8Ryhq6TYrAx/4LrUv1PIcfAMQkrVBAgMB
AAGjgewwgekwHQYDVR0OBBYEFM15qL+x/hbvmRupggZIamVtfQI1MB8GA1UdIwQY
MBaAFEvW6Zc0P9HpGBqc19wdk4yoLxosMAkGA1UdEwQCMAAwCwYDVR0PBAQDAgWg
MGEGA1UdEQRaMFiCCnB1Z2Fzcy5jb22CD3d3dy5leGFtcGxlLmNvbYIQbWFpbC5l
eGFtcGxlLmNvbYIPZnRwLmV4YW1wbGUuY29thwR/AAABhxAAAAAAAAAAAAAAAAAA
AAABMCwGCWCGSAGG+EIBDQQfFh1PcGVuU1NMIEdlbmVyYXRlZCBDZXJ0aWZpY2F0
ZTANBgkqhkiG9w0BAQsFAAOCAQEAgH6en8kVzVodkhW3O2VsXdXl3s5Jz+lGVEEN
wERnFaYhL5Xtyud0oViuuIAs9g91b919w716fHw4nKCxZ6+BrK+ivsUbn+lP1Cnw
O1PbUdjvOTEyqO7SiVJUrNy/mHqapPlgYzlljspSGXYdKRNbz0VA/+7U5bvUp/oo
wHQUZXsH1CFkslkyJozJYlkyKpZsVKVmqYbvqluQXjRWl4pCGef1Ddi0pGsOv5Y7
CmKplEpvQwo5X/bTE44OHLNWxwO/leHM5dkiSGosmpFMbliHpe6jE6gGHlePC8a/
5zg+QO8ZB7A+i+iHfadKHZ4uJoVUeYnkF+lPEwZOWEZ0YWs2uQ==
-----END CERTIFICATE-----
