Certificate:
    Data:
        Version: 3 (0x2)
        Serial Number: 3 (0x3)
    Signature Algorithm: sha256WithRSAEncryption
        Issuer: C=AF, ST=De-Nile, L=Wakanda, O=DEEZ NUTS, CN=DEEZ NUTS cn
        Validity
            Not Before: Nov 22 04:08:06 2018 GMT
            Not After : Aug 18 04:08:06 2021 GMT
        Subject: C=US, ST=De-Nile, L=MotoCity, O=JDell-SUCKS, CN=www.pizzahut.com
        Subject Public Key Info:
            Public Key Algorithm: rsaEncryption
                Public-Key: (2048 bit)
                Modulus:
                    00:ce:35:89:56:1f:67:b9:9d:20:03:b4:8e:2b:6d:
                    b9:55:9d:47:34:82:5e:bd:bc:89:5f:02:73:7a:fe:
                    37:f1:43:46:8e:b9:09:9b:48:ef:72:12:05:e4:6e:
                    4f:8c:66:82:5d:30:58:33:18:5a:a8:c8:30:f7:96:
                    17:fc:6d:9c:12:9b:ec:dd:7d:28:1d:2b:ab:d4:cf:
                    56:ff:45:cc:c0:57:dd:f7:cf:1b:51:b8:77:e0:b7:
                    4f:22:d3:33:f5:da:8d:ad:af:92:79:6c:8d:f7:ad:
                    38:ee:4b:0c:56:5b:7c:da:eb:c9:63:8c:b1:06:47:
                    6d:0a:3c:48:98:f3:a2:ae:0b:62:df:14:8e:9c:3b:
                    13:da:19:36:11:d8:e9:fd:58:79:0b:81:c3:ed:82:
                    3a:1f:3f:57:c2:51:df:07:a7:10:88:58:df:d7:95:
                    d3:bc:7a:bd:80:58:18:9b:02:14:38:7c:3a:17:44:
                    a6:f5:90:15:0b:08:51:95:ea:76:53:e2:77:42:23:
                    fe:e6:78:7f:bc:90:1d:e8:02:d8:00:a8:1d:8a:7b:
                    7d:38:f3:00:bc:eb:13:f4:54:c4:c7:ff:ee:cb:a9:
                    70:9f:9d:64:df:cb:96:0f:cf:5e:78:9c:62:16:dd:
                    cd:4a:f3:26:c7:c8:43:dc:83:07:e7:fe:e6:b7:b6:
                    b2:c1
                Exponent: 65537 (0x10001)
        X509v3 extensions:
            X509v3 Subject Key Identifier: 
                51:7C:59:8B:02:CF:75:6B:1F:C9:1E:C1:F7:1F:E6:30:85:8A:C6:A1
            X509v3 Authority Key Identifier: 
                keyid:FE:17:75:F2:03:A8:4D:82:0A:C2:C3:7B:62:E3:01:3C:43:6A:D8:58

            X509v3 Basic Constraints: 
                CA:FALSE
            X509v3 Key Usage: 
                Digital Signature, Key Encipherment
    Signature Algorithm: sha256WithRSAEncryption
         25:2a:8c:4e:9b:b0:3d:ab:41:69:72:92:f5:f2:b7:01:d4:64:
         56:46:40:64:2b:36:a0:fb:70:25:8f:96:98:e5:d5:aa:d1:ba:
         99:c1:5d:04:f1:3d:ce:2a:bc:2e:b9:ae:0a:bf:7c:83:92:5e:
         b7:0c:84:57:fd:1c:22:33:aa:c1:03:b8:57:ee:bf:2d:a7:e8:
         fb:9f:b0:c6:4c:45:04:62:11:2d:6c:10:e9:52:ff:63:3b:f5:
         ee:80:8d:f9:72:54:2f:b1:59:3d:96:b9:80:bb:69:6a:81:a6:
         74:76:62:e7:69:f1:af:ed:dd:78:6e:bc:b9:99:f2:42:e9:29:
         06:1e:e2:30:c9:5b:b0:15:cb:67:a9:7b:61:f7:5e:65:b3:4c:
         5a:b8:8c:dd:9e:c1:8b:e9:40:c6:a8:02:d6:88:7c:2a:f1:f9:
         a6:f9:c6:98:2a:93:1d:f1:d7:f4:fb:5e:a8:cf:09:ed:49:35:
         13:32:1e:1b:b5:a4:cd:ee:fa:1c:45:96:9b:28:b1:1e:0a:d4:
         83:e0:d3:32:1a:34:eb:a3:f2:79:47:87:c7:c9:8b:24:10:0c:
         a4:cc:39:1e:63:62:00:e4:41:2a:cf:19:46:b4:34:60:4c:d6:
         0c:17:c1:a7:1b:5b:b3:93:9f:a2:c9:a9:c7:48:33:e7:45:8c:
         df:7d:97:53:85:c6:2c:f3:24:0f:cf:cb:0c:62:06:49:90:3b:
         a4:89:7b:0e:46:1c:5e:8f:56:e9:cf:42:64:a1:22:36:23:65:
         3c:5d:2f:aa:15:72:01:c5:b3:ce:2a:52:df:91:0f:c8:e7:a1:
         49:1a:c3:6c:a5:fc:8c:aa:42:9c:2b:b9:09:12:d9:71:68:07:
         5e:a3:8a:31:77:c3:01:b7:e9:55:b4:c5:61:d9:37:1a:84:26:
         67:2a:a6:72:ba:6a:50:d0:ae:82:94:73:47:49:97:f0:ca:1f:
         ac:48:4a:97:49:57:48:12:ef:cd:d1:45:39:f7:55:1b:1d:19:
         fc:17:3b:cc:c9:10:3d:e6:47:e0:1a:b2:74:62:cb:ba:fd:16:
         17:e6:ca:35:28:6e:dd:e9:65:98:ca:9d:32:21:ed:d2:13:7a:
         8f:40:c3:91:42:20:f7:0e:84:c7:59:4a:ef:76:bd:e3:20:96:
         c7:b8:4e:38:0a:01:87:6b:f5:27:e3:7f:81:8b:7a:c3:62:9e:
         5b:1b:d9:46:e8:67:78:05:84:03:e4:0f:1b:4b:8b:b8:41:39:
         f1:5e:36:69:a9:cf:54:ea:7f:3c:5c:24:1d:cb:87:5b:ba:3f:
         8c:5d:46:6c:62:fb:7e:09:26:4f:7b:f4:d2:5a:36:0f:97:eb:
         a3:4c:7e:c6:51:db:84:8b
-----BEGIN CERTIFICATE-----
MIIElDCCAnygAwIBAgIBAzANBgkqhkiG9w0BAQsFADBcMQswCQYDVQQGEwJBRjEQ
MA4GA1UECAwHRGUtTmlsZTEQMA4GA1UEBwwHV2FrYW5kYTESMBAGA1UECgwJREVF
WiBOVVRTMRUwEwYDVQQDDAxERUVaIE5VVFMgY24wHhcNMTgxMTIyMDQwODA2WhcN
MjEwODE4MDQwODA2WjBjMQswCQYDVQQGEwJVUzEQMA4GA1UECAwHRGUtTmlsZTER
MA8GA1UEBwwITW90b0NpdHkxFDASBgNVBAoMC0pEZWxsLVNVQ0tTMRkwFwYDVQQD
DBB3d3cucGl6emFodXQuY29tMIIBIjANBgkqhkiG9w0BAQEFAAOCAQ8AMIIBCgKC
AQEAzjWJVh9nuZ0gA7SOK225VZ1HNIJevbyJXwJzev438UNGjrkJm0jvchIF5G5P
jGaCXTBYMxhaqMgw95YX/G2cEpvs3X0oHSur1M9W/0XMwFfd988bUbh34LdPItMz
9dqNra+SeWyN96047ksMVlt82uvJY4yxBkdtCjxImPOirgti3xSOnDsT2hk2Edjp
/Vh5C4HD7YI6Hz9XwlHfB6cQiFjf15XTvHq9gFgYmwIUOHw6F0Sm9ZAVCwhRlep2
U+J3QiP+5nh/vJAd6ALYAKgdint9OPMAvOsT9FTEx//uy6lwn51k38uWD89eeJxi
Ft3NSvMmx8hD3IMH5/7mt7aywQIDAQABo1owWDAdBgNVHQ4EFgQUUXxZiwLPdWsf
yR7B9x/mMIWKxqEwHwYDVR0jBBgwFoAU/hd18gOoTYIKwsN7YuMBPENq2FgwCQYD
VR0TBAIwADALBgNVHQ8EBAMCBaAwDQYJKoZIhvcNAQELBQADggIBACUqjE6bsD2r
QWlykvXytwHUZFZGQGQrNqD7cCWPlpjl1arRupnBXQTxPc4qvC65rgq/fIOSXrcM
hFf9HCIzqsEDuFfuvy2n6PufsMZMRQRiES1sEOlS/2M79e6AjflyVC+xWT2WuYC7
aWqBpnR2Yudp8a/t3XhuvLmZ8kLpKQYe4jDJW7AVy2epe2H3XmWzTFq4jN2ewYvp
QMaoAtaIfCrx+ab5xpgqkx3x1/T7XqjPCe1JNRMyHhu1pM3u+hxFlpsosR4K1IPg
0zIaNOuj8nlHh8fJiyQQDKTMOR5jYgDkQSrPGUa0NGBM1gwXwacbW7OTn6LJqcdI
M+dFjN99l1OFxizzJA/PywxiBkmQO6SJew5GHF6PVunPQmShIjYjZTxdL6oVcgHF
s84qUt+RD8jnoUkaw2yl/IyqQpwruQkS2XFoB16jijF3wwG36VW0xWHZNxqEJmcq
pnK6alDQroKUc0dJl/DKH6xISpdJV0gS783RRTn3VRsdGfwXO8zJED3mR+AasnRi
y7r9FhfmyjUobt3pZZjKnTIh7dITeo9Aw5FCIPcOhMdZSu92veMglse4TjgKAYdr
9Sfjf4GLesNinlsb2UboZ3gFhAPkDxtLi7hBOfFeNmmpz1TqfzxcJB3Lh1u6P4xd
Rmxi+34JJk979NJaNg+X66NMfsZR24SL
-----END CERTIFICATE-----
