Certificate:
    Data:
        Version: 3 (0x2)
        Serial Number: 2 (0x2)
    Signature Algorithm: sha256WithRSAEncryption
        Issuer: C=AF, ST=WAKANDA, L=De-Nile, O=Intermediate DEEZ NUTS Inc, CN=DEEZ NUTS intermediate
        Validity
            Not Before: Nov 22 22:28:19 2018 GMT
            Not After : Aug 18 22:28:19 2021 GMT
        Subject: C=US, ST=FUGITIVE, L=MotoCity, O=Swain-Gant, OU=Swain-Gant LLC, CN=www.swain-gant.com
        Subject Public Key Info:
            Public Key Algorithm: rsaEncryption
                Public-Key: (2048 bit)
                Modulus:
                    00:9a:f3:35:87:5c:05:48:f4:43:f1:5d:7f:ff:62:
                    4e:83:69:36:25:4b:fc:83:88:6b:77:b5:12:c3:08:
                    8c:70:2f:3e:f2:4a:e4:e6:c2:64:a6:12:2b:60:64:
                    2a:57:36:92:5c:68:8a:eb:9a:a3:33:e2:07:be:dd:
                    99:67:11:76:7d:84:29:58:01:59:24:f9:dd:31:0f:
                    da:1c:ad:6c:eb:77:3b:cc:c1:3e:29:2d:d6:68:1f:
                    c1:1d:ab:5a:4e:d4:bd:5d:71:8b:3f:4d:8e:e5:b5:
                    8c:38:1e:10:df:92:96:16:c8:86:f0:a8:79:3b:57:
                    e6:62:05:f3:2f:43:b1:e9:64:db:ec:87:e5:8e:f2:
                    8f:d5:19:c3:f5:15:c6:13:01:21:ef:6f:fa:1d:0e:
                    0a:9f:8c:6e:0b:c3:1d:c8:d2:a3:4a:6c:fa:42:da:
                    5c:63:ae:3d:e5:b1:d6:41:92:9f:bd:a1:77:a1:75:
                    d5:47:a0:f4:e7:89:d4:39:9e:1f:5b:2c:43:f8:ce:
                    c2:6e:4d:35:a9:bc:94:0f:f6:05:e7:8f:c4:e9:d5:
                    c6:7f:fc:95:7e:f9:b6:56:0b:16:4e:e2:23:4a:39:
                    40:9d:f0:18:5e:f5:4b:71:f0:3e:a3:4d:53:f6:bf:
                    d8:f4:bc:a7:70:c2:20:ec:28:1c:33:8c:e8:f2:38:
                    59:11
                Exponent: 65537 (0x10001)
        X509v3 extensions:
            X509v3 Subject Key Identifier: 
                4B:D6:E9:97:34:3F:D1:E9:18:1A:9C:D7:DC:1D:93:8C:A8:2F:1A:2C
            X509v3 Authority Key Identifier: 
                keyid:4B:D6:E9:97:34:3F:D1:E9:18:1A:9C:D7:DC:1D:93:8C:A8:2F:1A:2C

            X509v3 Basic Constraints: 
                CA:FALSE
            X509v3 Key Usage: 
                Digital Signature, Key Encipherment
    Signature Algorithm: sha256WithRSAEncryption
         1c:04:1f:bb:63:bc:c6:53:18:7e:f8:82:1e:76:fd:fd:77:e5:
         4a:ae:90:2c:c2:6a:5c:7a:cc:4a:c5:aa:1f:21:78:e3:28:35:
         d0:05:b6:c3:da:7c:08:3a:6c:c0:d5:f4:83:8b:cb:47:5a:35:
         c4:3e:1e:a2:a6:a5:1f:27:28:4d:4a:b1:0a:7e:3c:4a:bd:26:
         50:c1:b8:db:44:2d:06:45:84:c7:96:72:35:b9:ad:b7:0c:55:
         41:99:e5:08:3b:ba:84:04:5a:b9:34:a0:23:ec:65:b0:f7:6c:
         2c:bf:10:97:02:e2:27:7d:20:a4:6d:e3:8b:74:63:bc:9f:b4:
         e8:f4:1d:02:8d:54:05:dd:7e:1f:2a:83:74:7b:02:37:ce:54:
         f6:f4:fb:00:38:cb:c0:92:fc:88:58:fb:20:1d:38:b2:4a:fe:
         73:b8:ef:83:23:b8:27:e0:15:b3:72:84:db:7b:6d:8c:d2:c1:
         16:fc:92:fe:af:ec:31:37:48:4c:0b:d2:fb:7d:f3:b5:0d:45:
         01:80:81:87:1a:6f:5b:d3:ee:a4:8a:e4:38:c6:f0:25:ae:77:
         4f:74:aa:16:8c:01:71:b7:bc:46:0d:2c:b9:e1:ad:f9:da:88:
         ca:5a:85:d3:32:ca:fc:a4:68:c6:5f:45:78:60:04:a9:b6:2b:
         96:1c:50:ad
-----BEGIN CERTIFICATE-----
MIIDyjCCArKgAwIBAgIBAjANBgkqhkiG9w0BAQsFADB3MQswCQYDVQQGEwJBRjEQ
MA4GA1UECAwHV0FLQU5EQTEQMA4GA1UEBwwHRGUtTmlsZTEjMCEGA1UECgwaSW50
ZXJtZWRpYXRlIERFRVogTlVUUyBJbmMxHzAdBgNVBAMMFkRFRVogTlVUUyBpbnRl
cm1lZGlhdGUwHhcNMTgxMTIyMjIyODE5WhcNMjEwODE4MjIyODE5WjB+MQswCQYD
VQQGEwJVUzERMA8GA1UECAwIRlVHSVRJVkUxETAPBgNVBAcMCE1vdG9DaXR5MRMw
EQYDVQQKDApTd2Fpbi1HYW50MRcwFQYDVQQLDA5Td2Fpbi1HYW50IExMQzEbMBkG
A1UEAwwSd3d3LnN3YWluLWdhbnQuY29tMIIBIjANBgkqhkiG9w0BAQEFAAOCAQ8A
MIIBCgKCAQEAmvM1h1wFSPRD8V1//2JOg2k2JUv8g4hrd7USwwiMcC8+8krk5sJk
phIrYGQqVzaSXGiK65qjM+IHvt2ZZxF2fYQpWAFZJPndMQ/aHK1s63c7zME+KS3W
aB/BHataTtS9XXGLP02O5bWMOB4Q35KWFsiG8Kh5O1fmYgXzL0Ox6WTb7IfljvKP
1RnD9RXGEwEh72/6HQ4Kn4xuC8MdyNKjSmz6QtpcY6495bHWQZKfvaF3oXXVR6D0
54nUOZ4fWyxD+M7Cbk01qbyUD/YF54/E6dXGf/yVfvm2VgsWTuIjSjlAnfAYXvVL
cfA+o01T9r/Y9LyncMIg7CgcM4zo8jhZEQIDAQABo1owWDAdBgNVHQ4EFgQUS9bp
lzQ/0ekYGpzX3B2TjKgvGiwwHwYDVR0jBBgwFoAUS9bplzQ/0ekYGpzX3B2TjKgv
GiwwCQYDVR0TBAIwADALBgNVHQ8EBAMCBaAwDQYJKoZIhvcNAQELBQADggEBABwE
H7tjvMZTGH74gh52/f135UqukCzCalx6zErFqh8heOMoNdAFtsPafAg6bMDV9IOL
y0daNcQ+HqKmpR8nKE1KsQp+PEq9JlDBuNtELQZFhMeWcjW5rbcMVUGZ5Qg7uoQE
Wrk0oCPsZbD3bCy/EJcC4id9IKRt44t0Y7yftOj0HQKNVAXdfh8qg3R7AjfOVPb0
+wA4y8CS/IhY+yAdOLJK/nO474MjuCfgFbNyhNt7bYzSwRb8kv6v7DE3SEwL0vt9
87UNRQGAgYcab1vT7qSK5DjG8CWud090qhaMAXG3vEYNLLnhrfnaiMpahdMyyvyk
aMZfRXhgBKm2K5YcUK0=
-----END CERTIFICATE-----
